; Function Attrs: mustprogress nounwind uwtable
define dso_local void @_ZN5clang5index24generateUSRForObjCMethodEN4llvm9StringRefEbRNS1_11raw_ostreamE(ptr %0, i64 %1, i1 noundef zeroext %2, ptr noundef nonnull align 8 dereferenceable(48) %3) local_unnamed_addr #0 {
  %.str.2..str.3 = select i1 %2, ptr @.str.2, ptr @.str.3
  %5 = getelementptr inbounds nuw i8, ptr %3, i64 24
  %6 = load ptr, ptr %5, align 8
  %7 = getelementptr inbounds nuw i8, ptr %3, i64 32
  %8 = load ptr, ptr %7, align 8
  %9 = ptrtoint ptr %6 to i64
  %10 = ptrtoint ptr %8 to i64
  %11 = sub i64 %9, %10
  %12 = icmp ult i64 %11, 4
  br i1 %12, label %13, label %15

13:                                               ; preds = %4
  %14 = tail call noundef nonnull align 8 dereferenceable(48) ptr @_ZN4llvm11raw_ostream5writeEPKcm(ptr noundef nonnull align 8 dereferenceable(48) %3, ptr noundef nonnull %.str.2..str.3, i64 noundef 4) #14
  %.phi.trans.insert = getelementptr inbounds nuw i8, ptr %14, i64 32
  %.pre = load ptr, ptr %.phi.trans.insert, align 8
  br label %_ZN4llvm11raw_ostreamlsEPKc.exit

15:                                               ; preds = %4
  %16 = load i32, ptr %.str.2..str.3, align 1
  store i32 %16, ptr %8, align 1
  %17 = load ptr, ptr %7, align 8
  %18 = getelementptr inbounds nuw i8, ptr %17, i64 4
  store ptr %18, ptr %7, align 8
  br label %_ZN4llvm11raw_ostreamlsEPKc.exit

_ZN4llvm11raw_ostreamlsEPKc.exit:                 ; preds = %13, %15
  %19 = phi ptr [ %.pre, %13 ], [ %18, %15 ]
  %.0.i.i = phi ptr [ %14, %13 ], [ %3, %15 ]
  %20 = getelementptr inbounds nuw i8, ptr %.0.i.i, i64 24
  %21 = load ptr, ptr %20, align 8
  %22 = getelementptr inbounds nuw i8, ptr %.0.i.i, i64 32
  %23 = ptrtoint ptr %21 to i64
  %24 = ptrtoint ptr %19 to i64
  %25 = sub i64 %23, %24
  %26 = icmp ugt i64 %1, %25
  br i1 %26, label %27, label %29

27:                                               ; preds = %_ZN4llvm11raw_ostreamlsEPKc.exit
  %28 = tail call noundef nonnull align 8 dereferenceable(48) ptr @_ZN4llvm11raw_ostream5writeEPKcm(ptr noundef nonnull align 8 dereferenceable(48) %.0.i.i, ptr noundef %0, i64 noundef %1) #14
  br label %_ZN4llvm11raw_ostreamlsENS_9StringRefE.exit

29:                                               ; preds = %_ZN4llvm11raw_ostreamlsEPKc.exit
  %.not.i = icmp eq i64 %1, 0
  br i1 %.not.i, label %_ZN4llvm11raw_ostreamlsENS_9StringRefE.exit, label %30

30:                                               ; preds = %29
  tail call void @llvm.memcpy.p0.p0.i64(ptr align 1 %19, ptr align 1 %0, i64 %1, i1 false)
  %31 = load ptr, ptr %22, align 8
  %32 = getelementptr inbounds i8, ptr %31, i64 %1
  store ptr %32, ptr %22, align 8
  br label %_ZN4llvm11raw_ostreamlsENS_9StringRefE.exit

_ZN4llvm11raw_ostreamlsENS_9StringRefE.exit:      ; preds = %27, %29, %30
  ret void
}